target datalayout = "e-m:e-p270:32:32-p271:32:32-p272:64:64-i64:64-i128:128-f80:128-n8:16:32:64-S128"
target triple = "x86_64-pc-linux-gnu"

%struct._object = type { %union.anon, ptr }
%union.anon = type { i64 }

@.str.65 = private unnamed_addr constant [40 x i8] c"../cpython/Modules/_testcapi/pyatomic.c\00", align 1
@.str.66 = private unnamed_addr constant [7 x i8] c"x == 1\00", align 1
@.str.68 = private unnamed_addr constant [7 x i8] c"x == 3\00", align 1
@.str.71 = private unnamed_addr constant [7 x i8] c"x == 0\00", align 1
@_Py_NoneStruct = external global %struct._object, align 8
@.str.131 = private unnamed_addr constant [32 x i8] c"_Py_atomic_add_int8(&x, 1) == 0\00", align 1
@__PRETTY_FUNCTION__.test_atomic_add_int8 = private unnamed_addr constant [55 x i8] c"PyObject *test_atomic_add_int8(PyObject *, PyObject *)\00", align 1
@.str.132 = private unnamed_addr constant [32 x i8] c"_Py_atomic_add_int8(&x, 2) == 1\00", align 1
@.str.133 = private unnamed_addr constant [33 x i8] c"_Py_atomic_add_int8(&x, -2) == 3\00", align 1
@.str.134 = private unnamed_addr constant [33 x i8] c"_Py_atomic_add_int8(&x, -1) == 1\00", align 1
@.str.135 = private unnamed_addr constant [33 x i8] c"_Py_atomic_add_int8(&x, -1) == 0\00", align 1
@.str.136 = private unnamed_addr constant [16 x i8] c"x == (int8_t)-1\00", align 1
@.str.137 = private unnamed_addr constant [42 x i8] c"_Py_atomic_add_int8(&x, -2) == (int8_t)-1\00", align 1
@.str.138 = private unnamed_addr constant [16 x i8] c"x == (int8_t)-3\00", align 1
@.str.139 = private unnamed_addr constant [41 x i8] c"_Py_atomic_add_int8(&x, 2) == (int8_t)-3\00", align 1

; Function Attrs: inlinehint nounwind uwtable
define internal signext i8 @_Py_atomic_add_int8(ptr noundef %0, i8 noundef signext %1) #3 {
  %3 = alloca ptr, align 8
  %4 = alloca i8, align 1
  %5 = alloca i8, align 1
  %6 = alloca i8, align 1
  store ptr %0, ptr %3, align 8, !tbaa !16
  store i8 %1, ptr %4, align 1, !tbaa !8
  %7 = load ptr, ptr %3, align 8, !tbaa !16
  %8 = load i8, ptr %4, align 1, !tbaa !8
  store i8 %8, ptr %5, align 1, !tbaa !8
  %9 = load i8, ptr %5, align 1
  %10 = atomicrmw add ptr %7, i8 %9 seq_cst, align 1
  store i8 %10, ptr %6, align 1
  %11 = load i8, ptr %6, align 1, !tbaa !8
  ret i8 %11
}

; Function Attrs: nounwind uwtable
define internal ptr @test_atomic_add_int8(ptr noundef %0, ptr noundef %1) #0 {
  %3 = alloca ptr, align 8
  %4 = alloca ptr, align 8
  %5 = alloca i8, align 1
  store ptr %0, ptr %3, align 8, !tbaa !3
  store ptr %1, ptr %4, align 8, !tbaa !3
  call void @llvm.lifetime.start.p0(i64 1, ptr %5) #5
  store i8 0, ptr %5, align 1, !tbaa !8
  %6 = call signext i8 @_Py_atomic_add_int8(ptr noundef %5, i8 noundef signext 1)
  %7 = sext i8 %6 to i32
  %8 = icmp eq i32 %7, 0
  br i1 %8, label %9, label %10

9:                                                ; preds = %2
  br label %12

10:                                               ; preds = %2
  call void @__assert_fail(ptr noundef @.str.131, ptr noundef @.str.65, i32 noundef 54, ptr noundef @__PRETTY_FUNCTION__.test_atomic_add_int8) #6
  unreachable

11:                                               ; No predecessors!
  br label %12

12:                                               ; preds = %11, %9
  %13 = load i8, ptr %5, align 1, !tbaa !8
  %14 = sext i8 %13 to i32
  %15 = icmp eq i32 %14, 1
  br i1 %15, label %16, label %17

16:                                               ; preds = %12
  br label %19

17:                                               ; preds = %12
  call void @__assert_fail(ptr noundef @.str.66, ptr noundef @.str.65, i32 noundef 54, ptr noundef @__PRETTY_FUNCTION__.test_atomic_add_int8) #6
  unreachable

18:                                               ; No predecessors!
  br label %19

19:                                               ; preds = %18, %16
  %20 = call signext i8 @_Py_atomic_add_int8(ptr noundef %5, i8 noundef signext 2)
  %21 = sext i8 %20 to i32
  %22 = icmp eq i32 %21, 1
  br i1 %22, label %23, label %24

23:                                               ; preds = %19
  br label %26

24:                                               ; preds = %19
  call void @__assert_fail(ptr noundef @.str.132, ptr noundef @.str.65, i32 noundef 54, ptr noundef @__PRETTY_FUNCTION__.test_atomic_add_int8) #6
  unreachable

25:                                               ; No predecessors!
  br label %26

26:                                               ; preds = %25, %23
  %27 = load i8, ptr %5, align 1, !tbaa !8
  %28 = sext i8 %27 to i32
  %29 = icmp eq i32 %28, 3
  br i1 %29, label %30, label %31

30:                                               ; preds = %26
  br label %33

31:                                               ; preds = %26
  call void @__assert_fail(ptr noundef @.str.68, ptr noundef @.str.65, i32 noundef 54, ptr noundef @__PRETTY_FUNCTION__.test_atomic_add_int8) #6
  unreachable

32:                                               ; No predecessors!
  br label %33

33:                                               ; preds = %32, %30
  %34 = call signext i8 @_Py_atomic_add_int8(ptr noundef %5, i8 noundef signext -2)
  %35 = sext i8 %34 to i32
  %36 = icmp eq i32 %35, 3
  br i1 %36, label %37, label %38

37:                                               ; preds = %33
  br label %40

38:                                               ; preds = %33
  call void @__assert_fail(ptr noundef @.str.133, ptr noundef @.str.65, i32 noundef 54, ptr noundef @__PRETTY_FUNCTION__.test_atomic_add_int8) #6
  unreachable

39:                                               ; No predecessors!
  br label %40

40:                                               ; preds = %39, %37
  %41 = load i8, ptr %5, align 1, !tbaa !8
  %42 = sext i8 %41 to i32
  %43 = icmp eq i32 %42, 1
  br i1 %43, label %44, label %45

44:                                               ; preds = %40
  br label %47

45:                                               ; preds = %40
  call void @__assert_fail(ptr noundef @.str.66, ptr noundef @.str.65, i32 noundef 54, ptr noundef @__PRETTY_FUNCTION__.test_atomic_add_int8) #6
  unreachable

46:                                               ; No predecessors!
  br label %47

47:                                               ; preds = %46, %44
  %48 = call signext i8 @_Py_atomic_add_int8(ptr noundef %5, i8 noundef signext -1)
  %49 = sext i8 %48 to i32
  %50 = icmp eq i32 %49, 1
  br i1 %50, label %51, label %52

51:                                               ; preds = %47
  br label %54

52:                                               ; preds = %47
  call void @__assert_fail(ptr noundef @.str.134, ptr noundef @.str.65, i32 noundef 54, ptr noundef @__PRETTY_FUNCTION__.test_atomic_add_int8) #6
  unreachable

53:                                               ; No predecessors!
  br label %54

54:                                               ; preds = %53, %51
  %55 = load i8, ptr %5, align 1, !tbaa !8
  %56 = sext i8 %55 to i32
  %57 = icmp eq i32 %56, 0
  br i1 %57, label %58, label %59

58:                                               ; preds = %54
  br label %61

59:                                               ; preds = %54
  call void @__assert_fail(ptr noundef @.str.71, ptr noundef @.str.65, i32 noundef 54, ptr noundef @__PRETTY_FUNCTION__.test_atomic_add_int8) #6
  unreachable

60:                                               ; No predecessors!
  br label %61

61:                                               ; preds = %60, %58
  %62 = call signext i8 @_Py_atomic_add_int8(ptr noundef %5, i8 noundef signext -1)
  %63 = sext i8 %62 to i32
  %64 = icmp eq i32 %63, 0
  br i1 %64, label %65, label %66

65:                                               ; preds = %61
  br label %68

66:                                               ; preds = %61
  call void @__assert_fail(ptr noundef @.str.135, ptr noundef @.str.65, i32 noundef 54, ptr noundef @__PRETTY_FUNCTION__.test_atomic_add_int8) #6
  unreachable

67:                                               ; No predecessors!
  br label %68

68:                                               ; preds = %67, %65
  %69 = load i8, ptr %5, align 1, !tbaa !8
  %70 = sext i8 %69 to i32
  %71 = icmp eq i32 %70, -1
  br i1 %71, label %72, label %73

72:                                               ; preds = %68
  br label %75

73:                                               ; preds = %68
  call void @__assert_fail(ptr noundef @.str.136, ptr noundef @.str.65, i32 noundef 54, ptr noundef @__PRETTY_FUNCTION__.test_atomic_add_int8) #6
  unreachable

74:                                               ; No predecessors!
  br label %75

75:                                               ; preds = %74, %72
  %76 = call signext i8 @_Py_atomic_add_int8(ptr noundef %5, i8 noundef signext -2)
  %77 = sext i8 %76 to i32
  %78 = icmp eq i32 %77, -1
  br i1 %78, label %79, label %80

79:                                               ; preds = %75
  br label %82

80:                                               ; preds = %75
  call void @__assert_fail(ptr noundef @.str.137, ptr noundef @.str.65, i32 noundef 54, ptr noundef @__PRETTY_FUNCTION__.test_atomic_add_int8) #6
  unreachable

81:                                               ; No predecessors!
  br label %82

82:                                               ; preds = %81, %79
  %83 = load i8, ptr %5, align 1, !tbaa !8
  %84 = sext i8 %83 to i32
  %85 = icmp eq i32 %84, -3
  br i1 %85, label %86, label %87

86:                                               ; preds = %82
  br label %89

87:                                               ; preds = %82
  call void @__assert_fail(ptr noundef @.str.138, ptr noundef @.str.65, i32 noundef 54, ptr noundef @__PRETTY_FUNCTION__.test_atomic_add_int8) #6
  unreachable

88:                                               ; No predecessors!
  br label %89

89:                                               ; preds = %88, %86
  %90 = call signext i8 @_Py_atomic_add_int8(ptr noundef %5, i8 noundef signext 2)
  %91 = sext i8 %90 to i32
  %92 = icmp eq i32 %91, -3
  br i1 %92, label %93, label %94

93:                                               ; preds = %89
  br label %96

94:                                               ; preds = %89
  call void @__assert_fail(ptr noundef @.str.139, ptr noundef @.str.65, i32 noundef 54, ptr noundef @__PRETTY_FUNCTION__.test_atomic_add_int8) #6
  unreachable

95:                                               ; No predecessors!
  br label %96

96:                                               ; preds = %95, %93
  %97 = load i8, ptr %5, align 1, !tbaa !8
  %98 = sext i8 %97 to i32
  %99 = icmp eq i32 %98, -1
  br i1 %99, label %100, label %101

100:                                              ; preds = %96
  br label %103

101:                                              ; preds = %96
  call void @__assert_fail(ptr noundef @.str.136, ptr noundef @.str.65, i32 noundef 54, ptr noundef @__PRETTY_FUNCTION__.test_atomic_add_int8) #6
  unreachable

102:                                              ; No predecessors!
  br label %103

103:                                              ; preds = %102, %100
  call void @llvm.lifetime.end.p0(i64 1, ptr %5) #5
  ret ptr @_Py_NoneStruct
}